(dp0
S'key1'
p1
S'value1'
p2
sS'key2'
p3
S'value2'
p4
sS'key3'
p5
S'value3'
p6
/* repeat as
sS'key4, 5, 6, ...'
p7, 9, 11, ...
S'key4, 5, 6, ...'
p8, 10, 12, ...
....
....
....
....
  this section */

s.



example:


(dp0
S'key1'
p1
S'value1'
p2
sS'key2'
p3
S'value2'
p4
sS'key3'
p5
S'value3'
p6
s.
